; Function Attrs: nofree nounwind memory(read, inaccessiblemem: none) uwtable
define internal fastcc noundef zeroext i1 @isFutureCTE(ptr noundef readonly captures(address_is_null) %0, ptr noundef readonly captures(none) %1) unnamed_addr #7 {
  %.not35.not = icmp eq ptr %0, null
  br i1 %.not35.not, label %.loopexit, label %.lr.ph39

.lr.ph39:                                         ; preds = %2, %._crit_edge32.split.us
  %.01636 = phi ptr [ %17, %._crit_edge32.split.us ], [ %0, %2 ]
  %3 = getelementptr inbounds nuw i8, ptr %.01636, i64 88
  %4 = load ptr, ptr %3, align 8
  %.not19 = icmp eq ptr %4, null
  br i1 %.not19, label %._crit_edge32.split.us, label %.lr.ph

.lr.ph:                                           ; preds = %.lr.ph39
  %5 = getelementptr inbounds nuw i8, ptr %4, i64 4
  %6 = load i32, ptr %5, align 4
  %7 = icmp sgt i32 %6, 0
  br i1 %7, label %.lr.ph34, label %._crit_edge32.split.us

.lr.ph34:                                         ; preds = %.lr.ph
  %8 = getelementptr inbounds nuw i8, ptr %4, i64 16
  %9 = load ptr, ptr %8, align 8
  %wide.trip.count = zext nneg i32 %6 to i64
  br label %11

10:                                               ; preds = %11
  %indvars.iv.next = add nuw nsw i64 %indvars.iv, 1
  %exitcond.not = icmp eq i64 %indvars.iv.next, %wide.trip.count
  br i1 %exitcond.not, label %._crit_edge32.split.us, label %11

11:                                               ; preds = %.lr.ph34, %10
  %indvars.iv = phi i64 [ 0, %.lr.ph34 ], [ %indvars.iv.next, %10 ]
  %12 = getelementptr inbounds nuw %union.ListCell, ptr %9, i64 %indvars.iv
  %13 = load ptr, ptr %12, align 8
  %14 = getelementptr inbounds nuw i8, ptr %13, i64 8
  %15 = load ptr, ptr %14, align 8
  %16 = tail call i32 @strcmp(ptr noundef nonnull dereferenceable(1) %15, ptr noundef nonnull dereferenceable(1) %1) #12
  %.not21 = icmp eq i32 %16, 0
  br i1 %.not21, label %.loopexit, label %10

._crit_edge32.split.us:                           ; preds = %10, %.lr.ph, %.lr.ph39
  %17 = load ptr, ptr %.01636, align 8
  %.not.not = icmp eq ptr %17, null
  br i1 %.not.not, label %.loopexit, label %.lr.ph39, !llvm.loop !14

.loopexit:                                        ; preds = %._crit_edge32.split.us, %11, %2
  %.not30 = phi i1 [ false, %2 ], [ true, %11 ], [ false, %._crit_edge32.split.us ]
  ret i1 %.not30
}